target datalayout = "e-m:e-p270:32:32-p271:32:32-p272:64:64-i64:64-i128:128-f80:128-n8:16:32:64-S128"
target triple = "x86_64-pc-linux-gnu"

%"class.std::_Function_base" = type { %"union.std::_Any_data", ptr }
%"union.std::_Any_data" = type { %"union.std::_Nocopy_types" }
%"union.std::_Nocopy_types" = type { { i64, i64 } }
%"class.std::function.55" = type { %"class.std::_Function_base", ptr }

; Function Attrs: mustprogress nounwind uwtable
define linkonce_odr noundef ptr @_ZNSt9_Any_data9_M_accessEv(ptr noundef nonnull align 8 dereferenceable(16) %0) #2 comdat align 2 {
  %2 = alloca ptr, align 8
  store ptr %0, ptr %2, align 8, !tbaa !1119
  %3 = load ptr, ptr %2, align 8
  %4 = getelementptr inbounds [16 x i8], ptr %3, i64 0, i64 0
  ret ptr %4
}

; Function Attrs: mustprogress nounwind uwtable
define linkonce_odr void @_ZNSt14_Function_base13_Base_managerIPFlRKNSt7__cxx1112basic_stringIcSt11char_traitsIcESaIcEEEEE9_M_createISA_EEvRSt9_Any_dataOT_St17integral_constantIbLb1EE(ptr noundef nonnull align 8 dereferenceable(16) %0, ptr noundef nonnull align 8 dereferenceable(8) %1) #2 comdat align 2 {
  %3 = alloca ptr, align 8
  %4 = alloca ptr, align 8
  store ptr %0, ptr %3, align 8, !tbaa !1119
  store ptr %1, ptr %4, align 8, !tbaa !25
  %5 = load ptr, ptr %3, align 8, !tbaa !1119
  %6 = call noundef ptr @_ZNSt9_Any_data9_M_accessEv(ptr noundef nonnull align 8 dereferenceable(16) %5) #19
  %7 = load ptr, ptr %4, align 8, !tbaa !25
  %8 = load ptr, ptr %7, align 8, !tbaa !22
  store ptr %8, ptr %6, align 8, !tbaa !22
  ret void
}

; Function Attrs: mustprogress nounwind uwtable
define linkonce_odr void @_ZNSt14_Function_base13_Base_managerIPFlRKNSt7__cxx1112basic_stringIcSt11char_traitsIcESaIcEEEEE15_M_init_functorISA_EEvRSt9_Any_dataOT_(ptr noundef nonnull align 8 dereferenceable(16) %0, ptr noundef nonnull align 8 dereferenceable(8) %1) #2 comdat align 2 personality ptr @__gxx_personality_v0 {
  %3 = alloca ptr, align 8
  %4 = alloca ptr, align 8
  store ptr %0, ptr %3, align 8, !tbaa !1119
  store ptr %1, ptr %4, align 8, !tbaa !25
  %5 = load ptr, ptr %3, align 8, !tbaa !1119
  %6 = load ptr, ptr %4, align 8, !tbaa !25
  invoke void @_ZNSt14_Function_base13_Base_managerIPFlRKNSt7__cxx1112basic_stringIcSt11char_traitsIcESaIcEEEEE9_M_createISA_EEvRSt9_Any_dataOT_St17integral_constantIbLb1EE(ptr noundef nonnull align 8 dereferenceable(16) %5, ptr noundef nonnull align 8 dereferenceable(8) %6)
          to label %7 unwind label %8

7:                                                ; preds = %2
  ret void

8:                                                ; preds = %2
  %9 = landingpad { ptr, i32 }
          catch ptr null
  %10 = extractvalue { ptr, i32 } %9, 0
  call void @__clang_call_terminate(ptr %10) #23
  unreachable
}

; Function Attrs: mustprogress nounwind uwtable
define linkonce_odr noundef zeroext i1 @_ZNSt14_Function_base13_Base_managerIPFlRKNSt7__cxx1112basic_stringIcSt11char_traitsIcESaIcEEEEE21_M_not_empty_functionIS9_EEbPT_(ptr noundef %0) #2 comdat align 2 {
  %2 = alloca ptr, align 8
  store ptr %0, ptr %2, align 8, !tbaa !22
  %3 = load ptr, ptr %2, align 8, !tbaa !22
  %4 = icmp ne ptr %3, null
  ret i1 %4
}

; Function Attrs: mustprogress nounwind uwtable
define linkonce_odr void @_ZNSt14_Function_baseC2Ev(ptr noundef nonnull align 8 dereferenceable(24) %0) unnamed_addr #2 comdat align 2 {
  %2 = alloca ptr, align 8
  store ptr %0, ptr %2, align 8, !tbaa !1048
  %3 = load ptr, ptr %2, align 8
  %4 = getelementptr inbounds nuw %"class.std::_Function_base", ptr %3, i32 0, i32 0
  store ptr null, ptr %4, align 8, !tbaa !940
  %5 = getelementptr inbounds nuw %"class.std::_Function_base", ptr %3, i32 0, i32 1
  store ptr null, ptr %5, align 8, !tbaa !30
  ret void
}

; Function Attrs: mustprogress nounwind uwtable
define linkonce_odr void @_ZNSt14_Function_baseD2Ev(ptr noundef nonnull align 8 dereferenceable(24) %0) unnamed_addr #2 comdat align 2 personality ptr @__gxx_personality_v0 {
  %2 = alloca ptr, align 8
  store ptr %0, ptr %2, align 8, !tbaa !1048
  %3 = load ptr, ptr %2, align 8
  %4 = getelementptr inbounds nuw %"class.std::_Function_base", ptr %3, i32 0, i32 1
  %5 = load ptr, ptr %4, align 8, !tbaa !30
  %6 = icmp ne ptr %5, null
  br i1 %6, label %7, label %14

7:                                                ; preds = %1
  %8 = getelementptr inbounds nuw %"class.std::_Function_base", ptr %3, i32 0, i32 1
  %9 = load ptr, ptr %8, align 8, !tbaa !30
  %10 = getelementptr inbounds nuw %"class.std::_Function_base", ptr %3, i32 0, i32 0
  %11 = getelementptr inbounds nuw %"class.std::_Function_base", ptr %3, i32 0, i32 0
  %12 = invoke noundef zeroext i1 %9(ptr noundef nonnull align 8 dereferenceable(16) %10, ptr noundef nonnull align 8 dereferenceable(16) %11, i32 noundef 3)
          to label %13 unwind label %15

13:                                               ; preds = %7
  br label %14

14:                                               ; preds = %13, %1
  ret void

15:                                               ; preds = %7
  %16 = landingpad { ptr, i32 }
          catch ptr null
  %17 = extractvalue { ptr, i32 } %16, 0
  call void @__clang_call_terminate(ptr %17) #23
  unreachable
}

; Function Attrs: mustprogress nounwind uwtable
define linkonce_odr void @_ZNSt8functionIFlRKNSt7__cxx1112basic_stringIcSt11char_traitsIcESaIcEEEEEC2IPS8_vEEOT_(ptr noundef nonnull align 8 dereferenceable(32) %0, ptr noundef nonnull align 8 dereferenceable(8) %1) unnamed_addr #2 comdat align 2 {
  %3 = alloca ptr, align 8
  %4 = alloca ptr, align 8
  store ptr %0, ptr %3, align 8, !tbaa !76
  store ptr %1, ptr %4, align 8, !tbaa !25
  %5 = load ptr, ptr %3, align 8
  %6 = getelementptr inbounds i8, ptr %5, i64 0
  call void @llvm.memset.p0.i64(ptr align 8 %6, i8 0, i64 24, i1 false)
  call void @_ZNSt14_Function_baseC2Ev(ptr noundef nonnull align 8 dereferenceable(24) %5) #19
  %7 = getelementptr inbounds nuw %"class.std::function.55", ptr %5, i32 0, i32 1
  store ptr null, ptr %7, align 8, !tbaa !78
  %8 = load ptr, ptr %4, align 8, !tbaa !25
  %9 = load ptr, ptr %8, align 8, !tbaa !22
  %10 = call noundef zeroext i1 @_ZNSt14_Function_base13_Base_managerIPFlRKNSt7__cxx1112basic_stringIcSt11char_traitsIcESaIcEEEEE21_M_not_empty_functionIS9_EEbPT_(ptr noundef %9) #19
  br i1 %10, label %11, label %16

11:                                               ; preds = %2
  %12 = getelementptr inbounds nuw %"class.std::_Function_base", ptr %5, i32 0, i32 0
  %13 = load ptr, ptr %4, align 8, !tbaa !25
  call void @_ZNSt14_Function_base13_Base_managerIPFlRKNSt7__cxx1112basic_stringIcSt11char_traitsIcESaIcEEEEE15_M_init_functorISA_EEvRSt9_Any_dataOT_(ptr noundef nonnull align 8 dereferenceable(16) %12, ptr noundef nonnull align 8 dereferenceable(8) %13) #19
  %14 = getelementptr inbounds nuw %"class.std::function.55", ptr %5, i32 0, i32 1
  store ptr @_ZNSt17_Function_handlerIFlRKNSt7__cxx1112basic_stringIcSt11char_traitsIcESaIcEEEEPS8_E9_M_invokeERKSt9_Any_dataS7_, ptr %14, align 8, !tbaa !78
  %15 = getelementptr inbounds nuw %"class.std::_Function_base", ptr %5, i32 0, i32 1
  store ptr @_ZNSt17_Function_handlerIFlRKNSt7__cxx1112basic_stringIcSt11char_traitsIcESaIcEEEEPS8_E10_M_managerERSt9_Any_dataRKSB_St18_Manager_operation, ptr %15, align 8, !tbaa !30
  br label %16

16:                                               ; preds = %11, %2
  ret void
}

; Function Attrs: mustprogress uwtable
define void @_ZN3gmx18Int64OptionStorage13initConverterEPNS_26OptionValueConverterSimpleIlEE(ptr noundef nonnull align 8 dereferenceable(216) %0, ptr noundef %1) unnamed_addr #0 align 2 personality ptr @__gxx_personality_v0 {
  %3 = alloca ptr, align 8
  %4 = alloca ptr, align 8
  %5 = alloca %"class.std::function.55", align 8
  %6 = alloca ptr, align 8
  %7 = alloca ptr, align 8
  %8 = alloca i32, align 4
  store ptr %0, ptr %3, align 8, !tbaa !70
  store ptr %1, ptr %4, align 8, !tbaa !74
  %9 = load ptr, ptr %4, align 8, !tbaa !74
  call void @llvm.lifetime.start.p0(i64 8, ptr %6) #19
  store ptr @_ZN3gmxL13fromStdStringIlEET_RKNSt7__cxx1112basic_stringIcSt11char_traitsIcESaIcEEE, ptr %6, align 8, !tbaa !22
  call void @_ZNSt8functionIFlRKNSt7__cxx1112basic_stringIcSt11char_traitsIcESaIcEEEEEC2IPS8_vEEOT_(ptr noundef nonnull align 8 dereferenceable(32) %5, ptr noundef nonnull align 8 dereferenceable(8) %6) #19
  invoke void @_ZN3gmx26OptionValueConverterSimpleIlE12addConverterINSt7__cxx1112basic_stringIcSt11char_traitsIcESaIcEEEEEvSt8functionIFlRKT_EE(ptr noundef nonnull align 8 dereferenceable(48) %9, ptr noundef %5)
          to label %10 unwind label %11

10:                                               ; preds = %2
  call void @_ZNSt14_Function_baseD2Ev(ptr noundef nonnull align 8 dereferenceable(32) %5) #19
  call void @llvm.lifetime.end.p0(i64 8, ptr %6) #19
  ret void

11:                                               ; preds = %2
  %12 = landingpad { ptr, i32 }
          cleanup
  %13 = extractvalue { ptr, i32 } %12, 0
  store ptr %13, ptr %7, align 8
  %14 = extractvalue { ptr, i32 } %12, 1
  store i32 %14, ptr %8, align 4
  call void @_ZNSt14_Function_baseD2Ev(ptr noundef nonnull align 8 dereferenceable(32) %5) #19
  call void @llvm.lifetime.end.p0(i64 8, ptr %6) #19
  br label %15

15:                                               ; preds = %11
  %16 = load ptr, ptr %7, align 8
  %17 = load i32, ptr %8, align 4
  %18 = insertvalue { ptr, i32 } poison, ptr %16, 0
  %19 = insertvalue { ptr, i32 } %18, i32 %17, 1
  resume { ptr, i32 } %19
}