; Function Attrs: mustprogress uwtable
define void @_ZN3gmx18Int64OptionStorage13initConverterEPNS_26OptionValueConverterSimpleIlEE(ptr nonnull readnone align 8 captures(none) %0, ptr noundef nonnull %1) unnamed_addr #2 align 2 personality ptr @__gxx_personality_v0 {
_ZNSt8functionIFlRKNSt7__cxx1112basic_stringIcSt11char_traitsIcESaIcEEEEEC2IPS8_vEEOT_.exit:
  %2 = alloca %"class.std::function.55", align 8
  %3 = getelementptr inbounds nuw i8, ptr %2, i64 8
  store i64 0, ptr %3, align 8
  %4 = getelementptr inbounds nuw i8, ptr %2, i64 24
  %5 = getelementptr inbounds nuw i8, ptr %2, i64 16
  store ptr @_ZN3gmxL13fromStdStringIlEET_RKNSt7__cxx1112basic_stringIcSt11char_traitsIcESaIcEEE, ptr %2, align 8, !tbaa !17
  store ptr @_ZNSt17_Function_handlerIFlRKNSt7__cxx1112basic_stringIcSt11char_traitsIcESaIcEEEEPS8_E9_M_invokeERKSt9_Any_dataS7_, ptr %4, align 8, !tbaa !110
  store ptr @_ZNSt17_Function_handlerIFlRKNSt7__cxx1112basic_stringIcSt11char_traitsIcESaIcEEEEPS8_E10_M_managerERSt9_Any_dataRKSB_St18_Manager_operation, ptr %5, align 8, !tbaa !21
  invoke void @_ZN3gmx26OptionValueConverterSimpleIlE12addConverterINSt7__cxx1112basic_stringIcSt11char_traitsIcESaIcEEEEEvSt8functionIFlRKT_EE(ptr noundef nonnull align 8 dereferenceable(48) %1, ptr noundef nonnull %2)
          to label %6 unwind label %13

6:                                                ; preds = %_ZNSt8functionIFlRKNSt7__cxx1112basic_stringIcSt11char_traitsIcESaIcEEEEEC2IPS8_vEEOT_.exit
  %7 = load ptr, ptr %5, align 8, !tbaa !21
  %.not.i2 = icmp eq ptr %7, null
  br i1 %.not.i2, label %_ZNSt14_Function_baseD2Ev.exit, label %8

8:                                                ; preds = %6
  %9 = invoke noundef zeroext i1 %7(ptr noundef nonnull align 8 dereferenceable(32) %2, ptr noundef nonnull align 8 dereferenceable(32) %2, i32 noundef 3)
          to label %_ZNSt14_Function_baseD2Ev.exit unwind label %10

10:                                               ; preds = %8
  %11 = landingpad { ptr, i32 }
          catch ptr null
  %12 = extractvalue { ptr, i32 } %11, 0
  call void @__clang_call_terminate(ptr %12) #27
  unreachable

_ZNSt14_Function_baseD2Ev.exit:                   ; preds = %6, %8
  ret void

13:                                               ; preds = %_ZNSt8functionIFlRKNSt7__cxx1112basic_stringIcSt11char_traitsIcESaIcEEEEEC2IPS8_vEEOT_.exit
  %14 = landingpad { ptr, i32 }
          cleanup
  %15 = load ptr, ptr %5, align 8, !tbaa !21
  %.not.i3 = icmp eq ptr %15, null
  br i1 %.not.i3, label %_ZNSt14_Function_baseD2Ev.exit4, label %16

16:                                               ; preds = %13
  %17 = invoke noundef zeroext i1 %15(ptr noundef nonnull align 8 dereferenceable(32) %2, ptr noundef nonnull align 8 dereferenceable(32) %2, i32 noundef 3)
          to label %_ZNSt14_Function_baseD2Ev.exit4 unwind label %18

18:                                               ; preds = %16
  %19 = landingpad { ptr, i32 }
          catch ptr null
  %20 = extractvalue { ptr, i32 } %19, 0
  call void @__clang_call_terminate(ptr %20) #27
  unreachable

_ZNSt14_Function_baseD2Ev.exit4:                  ; preds = %13, %16
  resume { ptr, i32 } %14
}